# ****************************************************************************
# CUI
#
# The Advanced Framework for Simulation, Integration, and Modeling (AFSIM)
#
# The use, dissemination or disclosure of data in this file is subject to
# limitation or restriction. See accompanying README and LICENSE for details.
# ****************************************************************************

{
   osg (1): osgPagedDatabase:Possible LEAK ~736 bytes
   Memcheck:Leak
   fun:calloc
   fun:_dl_allocate_tls
   fun:pthread_create@@GLIBC_2.2.5
   fun:_ZN11OpenThreads6Thread5startEv
   fun:_ZN5osgDB13DatabasePager15requestNodeFileERKSsRSt6vectorIPN3osg4NodeESaIS6_EEfPKNS4_10FrameStampERNS4_7ref_ptrINS4_10ReferencedEEEPKSE_
   fun:_ZN3osg8PagedLOD8traverseERNS_11NodeVisitorE
   fun:_ZN7osgUtil11CullVisitor5applyERN3osg3LODE
   fun:_ZN3osg8PagedLOD6acceptERNS_11NodeVisitorE
   fun:_ZN3osg5Group8traverseERNS_11NodeVisitorE
   fun:_ZN7osgUtil11CullVisitor5applyERN3osg5GroupE
   fun:_ZN3osg20CoordinateSystemNode6acceptERNS_11NodeVisitorE
   fun:_ZN3osg5Group8traverseERNS_11NodeVisitorE
}
{
   osg (2): shader program:COND
   Memcheck:Cond
   fun:_ZNK3osg7Program17PerContextProgram5applyERKNS_7UniformE
   fun:_ZN3osg5State5applyEv
   fun:_ZN7osgUtil11RenderStage18drawImplementationERN3osg10RenderInfoERPNS_10RenderLeafE
   fun:_ZN7osgUtil11RenderStage9drawInnerERN3osg10RenderInfoERPNS_10RenderLeafERb
   fun:_ZN7osgUtil11RenderStage4drawERN3osg10RenderInfoERPNS_10RenderLeafE
   fun:_ZN7osgUtil11RenderStage19drawPreRenderStagesERN3osg10RenderInfoERPNS_10RenderLeafE
   fun:_ZN7osgUtil9SceneView4drawEv
   fun:_ZN9osgViewer8Renderer9cull_drawEv
   fun:_ZN3osg15GraphicsContext13runOperationsEv
   fun:_ZN9osgViewer10ViewerBase19renderingTraversalsEv
}
{
   osg (3): shader program:COND (2)
   Memcheck:Cond
   fun:_ZNK3osg7Program17PerContextProgram5applyERKNS_7UniformE
   fun:_ZN3osg5State16applyUniformListERSt3mapISsNS0_12UniformStackESt4lessISsESaISt4pairIKSsS2_EEERKS1_ISsS5_INS_7ref_ptrINS_7UniformEEEjES4_SaIS5_IS6_SE_EEE
   fun:_ZN3osg5State5applyEPKNS_8StateSetE
}
